# SymbolsHelper-Confirmed: 4:17.08.3 amd64
libKF5CompactDisc.so.5 libkf5compactdisc5 #MINVER#
* Build-Depends-Package: libkf5compactdisc-dev
 _ZN12KCompactDisc10deviceNameEv@Base 4:17.08.3
 _ZN12KCompactDisc10discArtistEv@Base 4:17.08.3
 _ZN12KCompactDisc10discLengthEv@Base 4:17.08.3
 _ZN12KCompactDisc10discStatusEv@Base 4:17.08.3
 _ZN12KCompactDisc10setBalanceEj@Base 4:17.08.3
 _ZN12KCompactDisc10trackTitleEj@Base 4:17.08.3
 _ZN12KCompactDisc10trackTitleEv@Base 4:17.08.3
 _ZN12KCompactDisc11deviceModelEv@Base 4:17.08.3
 _ZN12KCompactDisc11discChangedEj@Base 4:17.08.3
 _ZN12KCompactDisc11qt_metacallEN11QMetaObject4CallEiPPv@Base 4:17.08.3
 _ZN12KCompactDisc11qt_metacastEPKc@Base 4:17.08.3
 _ZN12KCompactDisc11trackArtistEj@Base 4:17.08.3
 _ZN12KCompactDisc11trackArtistEv@Base 4:17.08.3
 _ZN12KCompactDisc11trackLengthEj@Base 4:17.08.3
 _ZN12KCompactDisc11trackLengthEv@Base 4:17.08.3
 _ZN12KCompactDisc11urlToDeviceERK4QUrl@Base 4:17.08.3
 _ZN12KCompactDisc12audioSystemsEv@Base 4:17.08.3
 _ZN12KCompactDisc12deviceVendorEv@Base 4:17.08.3
 _ZN12KCompactDisc12discPositionEv@Base 4:17.08.3
 _ZN12KCompactDisc12playPositionEj@Base 4:17.08.3
 _ZN12KCompactDisc13discSignatureEv@Base 4:17.08.3
 _ZN12KCompactDisc13trackPositionEv@Base 4:17.08.3
 _ZN12KCompactDisc13volumeChangedEj@Base 4:17.08.3
 _ZN12KCompactDisc14balanceChangedEj@Base 4:17.08.3
 _ZN12KCompactDisc14cdromDeviceUdiERK7QString@Base 4:17.08.3
 _ZN12KCompactDisc14cdromDeviceUrlERK7QString@Base 4:17.08.3
 _ZN12KCompactDisc14deviceRevisionEv@Base 4:17.08.3
 _ZN12KCompactDisc14metadataLookupEv@Base 4:17.08.3
 _ZN12KCompactDisc15discInformationENS_8DiscInfoE@Base 4:17.08.3
 _ZN12KCompactDisc15setLoopPlaylistEb@Base 4:17.08.3
 _ZN12KCompactDisc16cdromDeviceNamesEv@Base 4:17.08.3
 _ZN12KCompactDisc16discStatusStringENS_10DiscStatusE@Base 4:17.08.3
 _ZN12KCompactDisc16staticMetaObjectE@Base 4:17.08.3
 _ZN12KCompactDisc17discStatusChangedENS_10DiscStatusE@Base 4:17.08.3
 _ZN12KCompactDisc17setRandomPlaylistEb@Base 4:17.08.3
 _ZN12KCompactDisc19loopPlaylistChangedEb@Base 4:17.08.3
 _ZN12KCompactDisc19playoutTrackChangedEj@Base 4:17.08.3
 _ZN12KCompactDisc21defaultCdromDeviceUdiEv@Base 4:17.08.3
 _ZN12KCompactDisc21defaultCdromDeviceUrlEv@Base 4:17.08.3
 _ZN12KCompactDisc21randomPlaylistChangedEb@Base 4:17.08.3
 _ZN12KCompactDisc21setAutoMetadataLookupEb@Base 4:17.08.3
 _ZN12KCompactDisc22defaultCdromDeviceNameEv@Base 4:17.08.3
 _ZN12KCompactDisc22playoutPositionChangedEj@Base 4:17.08.3
 _ZN12KCompactDisc4loopEv@Base 4:17.08.3
 _ZN12KCompactDisc4nextEv@Base 4:17.08.3
 _ZN12KCompactDisc4playEv@Base 4:17.08.3
 _ZN12KCompactDisc4prevEv@Base 4:17.08.3
 _ZN12KCompactDisc4stopEv@Base 4:17.08.3
 _ZN12KCompactDisc5ejectEv@Base 4:17.08.3
 _ZN12KCompactDisc5pauseEv@Base 4:17.08.3
 _ZN12KCompactDisc5trackEv@Base 4:17.08.3
 _ZN12KCompactDisc6discIdEv@Base 4:17.08.3
 _ZN12KCompactDisc6randomEv@Base 4:17.08.3
 _ZN12KCompactDisc6tracksEv@Base 4:17.08.3
 _ZN12KCompactDisc7isAudioEj@Base 4:17.08.3
 _ZN12KCompactDisc8isNoDiscEv@Base 4:17.08.3
 _ZN12KCompactDisc8isPausedEv@Base 4:17.08.3
 _ZN12KCompactDisc9deviceUrlEv@Base 4:17.08.3
 _ZN12KCompactDisc9discTitleEv@Base 4:17.08.3
 _ZN12KCompactDisc9doCommandENS_11DiscCommandE@Base 4:17.08.3
 _ZN12KCompactDisc9isPlayingEv@Base 4:17.08.3
 _ZN12KCompactDisc9playTrackEj@Base 4:17.08.3
 _ZN12KCompactDisc9setDeviceERK7QStringjbS2_S2_@Base 4:17.08.3
 _ZN12KCompactDisc9setVolumeEj@Base 4:17.08.3
 _ZN12KCompactDiscC1ENS_15InformationModeE@Base 4:17.08.3
 _ZN12KCompactDiscC2ENS_15InformationModeE@Base 4:17.08.3
 _ZN12KCompactDiscD0Ev@Base 4:17.08.3
 _ZN12KCompactDiscD1Ev@Base 4:17.08.3
 _ZN12KCompactDiscD2Ev@Base 4:17.08.3
 _ZNK12KCompactDisc10metaObjectEv@Base 4:17.08.3
 _ZTI12KCompactDisc@Base 4:17.08.3
 _ZTS12KCompactDisc@Base 4:17.08.3
 _ZTV12KCompactDisc@Base 4:17.08.3
